; Function Attrs: mustprogress nofree norecurse nosync nounwind willreturn memory(argmem: readwrite) uwtable
define dso_local void @_ZN4node6crypto11ManagedX509C2EOSt10unique_ptrI7x509_stNS_15FunctionDeleterIS3_XadL_Z9X509_freeEEEEE(ptr nocapture noundef nonnull writeonly align 8 dereferenceable(16) %this, ptr nocapture noundef nonnull align 8 dereferenceable(8) %cert) unnamed_addr #3 align 2 {
entry:
  store ptr getelementptr inbounds ({ [10 x ptr] }, ptr @_ZTVN4node6crypto11ManagedX509E, i64 0, i32 0, i64 2), ptr %this, align 8
  %cert_ = getelementptr inbounds i8, ptr %this, i64 8
  %0 = load i64, ptr %cert, align 8
  store i64 %0, ptr %cert_, align 8
  store ptr null, ptr %cert, align 8
  ret void
}